; Function Attrs: mustprogress nofree nounwind uwtable
define noundef nonnull align 8 dereferenceable(16) ptr @_ZNK32pxrInternal_v0_24__pxrReserved__12Sdf_Identity8GetLayerEv(ptr nocapture noundef nonnull readonly align 8 dereferenceable(24) %0) local_unnamed_addr #0 align 2 personality ptr @__gxx_personality_v0 {
  %2 = getelementptr inbounds nuw i8, ptr %0, i64 16
  %3 = load ptr, ptr %2, align 8
  %.not = icmp eq ptr %3, null
  br i1 %.not, label %6, label %4

4:                                                ; preds = %1
  %5 = getelementptr inbounds nuw i8, ptr %3, i64 80
  br label %13

6:                                                ; preds = %1
  %7 = load atomic i8, ptr @_ZGVZNK32pxrInternal_v0_24__pxrReserved__12Sdf_Identity8GetLayerEvE5empty acquire, align 8
  %8 = icmp eq i8 %7, 0
  br i1 %8, label %9, label %13, !prof !4

9:                                                ; preds = %6
  %10 = tail call i32 @__cxa_guard_acquire(ptr nonnull @_ZGVZNK32pxrInternal_v0_24__pxrReserved__12Sdf_Identity8GetLayerEvE5empty) #11
  %.not4 = icmp eq i32 %10, 0
  br i1 %.not4, label %13, label %11

11:                                               ; preds = %9
  tail call void @llvm.memset.p0.i64(ptr noundef nonnull align 8 dereferenceable(16) @_ZZNK32pxrInternal_v0_24__pxrReserved__12Sdf_Identity8GetLayerEvE5empty, i8 0, i64 16, i1 false)
  %12 = tail call i32 @__cxa_atexit(ptr nonnull @_ZN32pxrInternal_v0_24__pxrReserved__9TfWeakPtrINS_8SdfLayerEED2Ev, ptr nonnull @_ZZNK32pxrInternal_v0_24__pxrReserved__12Sdf_Identity8GetLayerEvE5empty, ptr nonnull @__dso_handle) #11
  tail call void @__cxa_guard_release(ptr nonnull @_ZGVZNK32pxrInternal_v0_24__pxrReserved__12Sdf_Identity8GetLayerEvE5empty) #11
  br label %13

13:                                               ; preds = %6, %9, %11, %4
  %.0 = phi ptr [ %5, %4 ], [ @_ZZNK32pxrInternal_v0_24__pxrReserved__12Sdf_Identity8GetLayerEvE5empty, %11 ], [ @_ZZNK32pxrInternal_v0_24__pxrReserved__12Sdf_Identity8GetLayerEvE5empty, %9 ], [ @_ZZNK32pxrInternal_v0_24__pxrReserved__12Sdf_Identity8GetLayerEvE5empty, %6 ]
  ret ptr %.0
}